; Function Attrs: mustprogress nofree norecurse nosync nounwind memory(readwrite, inaccessiblemem: none) uwtable
define hidden noundef i32 @_ZN2cv4usac7Quality10getInliersERKSt6vectorIfSaIfEERS2_IiSaIiEEd(ptr nocapture noundef nonnull readonly align 8 dereferenceable(24) %0, ptr nocapture noundef nonnull readonly align 8 dereferenceable(24) %1, double noundef %2) local_unnamed_addr #4 align 2 {
  %4 = load ptr, ptr %0, align 8
  %5 = getelementptr inbounds i8, ptr %0, i64 8
  %6 = load ptr, ptr %5, align 8
  %.not13 = icmp eq ptr %4, %6
  br i1 %.not13, label %._crit_edge, label %.lr.ph

.lr.ph:                                           ; preds = %3, %15
  %.016 = phi i32 [ %16, %15 ], [ 0, %3 ]
  %.0915 = phi i32 [ %.1, %15 ], [ 0, %3 ]
  %.sroa.010.014 = phi ptr [ %17, %15 ], [ %4, %3 ]
  %7 = load float, ptr %.sroa.010.014, align 4
  %8 = fpext float %7 to double
  %9 = fcmp olt double %8, %2
  br i1 %9, label %10, label %15

10:                                               ; preds = %.lr.ph
  %11 = add nsw i32 %.0915, 1
  %12 = sext i32 %.0915 to i64
  %13 = load ptr, ptr %1, align 8
  %14 = getelementptr inbounds i32, ptr %13, i64 %12
  store i32 %.016, ptr %14, align 4
  br label %15

15:                                               ; preds = %10, %.lr.ph
  %.1 = phi i32 [ %11, %10 ], [ %.0915, %.lr.ph ]
  %16 = add nuw nsw i32 %.016, 1
  %17 = getelementptr inbounds i8, ptr %.sroa.010.014, i64 4
  %.not = icmp eq ptr %17, %6
  br i1 %.not, label %._crit_edge, label %.lr.ph

._crit_edge:                                      ; preds = %15, %3
  %.09.lcssa = phi i32 [ 0, %3 ], [ %.1, %15 ]
  ret i32 %.09.lcssa
}